; ModuleID = 'source-C-CXX/44/2540.c'
source_filename = "source-C-CXX/44/2540.c"
target datalayout = "e-m:e-p270:32:32-p271:32:32-p272:64:64-i64:64-f80:128-n8:16:32:64-S128"
target triple = "x86_64-pc-linux-gnu"

%struct._IO_FILE = type { i32, i8*, i8*, i8*, i8*, i8*, i8*, i8*, i8*, i8*, i8*, i8*, %struct._IO_marker*, %struct._IO_FILE*, i32, i32, i64, i16, i8, [1 x i8], i8*, i64, %struct._IO_codecvt*, %struct._IO_wide_data*, %struct._IO_FILE*, i8*, i64, i32, [20 x i8] }
%struct._IO_marker = type opaque
%struct._IO_codecvt = type opaque
%struct._IO_wide_data = type opaque

@.str = private unnamed_addr constant [3 x i8] c"%d\00", align 1
@stdin = external local_unnamed_addr global %struct._IO_FILE*, align 8

; Function Attrs: nounwind sspstrong uwtable
define dso_local i32 @main() local_unnamed_addr #0 {
  %1 = alloca [60 x i8], align 16
  %2 = alloca [60 x i8], align 16
  %3 = getelementptr inbounds [60 x i8], [60 x i8]* %1, i64 0, i64 0
  call void @llvm.lifetime.start.p0i8(i64 60, i8* nonnull %3) #4
  %4 = getelementptr inbounds [60 x i8], [60 x i8]* %2, i64 0, i64 0
  call void @llvm.lifetime.start.p0i8(i64 60, i8* nonnull %4) #4
  %5 = load %struct._IO_FILE*, %struct._IO_FILE** @stdin, align 8, !tbaa !5
  %6 = tail call i32 @getc(%struct._IO_FILE* %5) #4
  %7 = and i32 %6, 255
  %8 = icmp eq i32 %7, 32
  br i1 %8, label %9, label %11

9:                                                ; preds = %0
  %10 = call i32 (i8*, ...) bitcast (i32 (...)* @gets to i32 (i8*, ...)*)(i8* nonnull %4) #4
  br label %46

11:                                               ; preds = %0, %11
  %12 = phi i64 [ %16, %11 ], [ 0, %0 ]
  %13 = phi i32 [ %18, %11 ], [ %6, %0 ]
  %14 = trunc i32 %13 to i8
  %15 = getelementptr inbounds [60 x i8], [60 x i8]* %1, i64 0, i64 %12
  store i8 %14, i8* %15, align 1, !tbaa !9
  %16 = add nuw i64 %12, 1
  %17 = load %struct._IO_FILE*, %struct._IO_FILE** @stdin, align 8, !tbaa !5
  %18 = tail call i32 @getc(%struct._IO_FILE* %17) #4
  %19 = and i32 %18, 255
  %20 = icmp eq i32 %19, 32
  br i1 %20, label %21, label %11

21:                                               ; preds = %11
  %22 = trunc i64 %16 to i32
  %23 = call i32 (i8*, ...) bitcast (i32 (...)* @gets to i32 (i8*, ...)*)(i8* nonnull %4) #4
  %24 = icmp eq i32 %22, 0
  br i1 %24, label %46, label %25

25:                                               ; preds = %21
  %26 = and i64 %16, 4294967295
  br label %27

27:                                               ; preds = %25, %37
  %28 = phi i64 [ 0, %25 ], [ %40, %37 ]
  br label %29

29:                                               ; preds = %27, %41
  %30 = phi i64 [ 0, %27 ], [ %42, %41 ]
  %31 = getelementptr inbounds [60 x i8], [60 x i8]* %1, i64 0, i64 %30
  %32 = load i8, i8* %31, align 1, !tbaa !9
  %33 = add nuw nsw i64 %30, %28
  %34 = getelementptr inbounds [60 x i8], [60 x i8]* %2, i64 0, i64 %33
  %35 = load i8, i8* %34, align 1, !tbaa !9
  %36 = icmp eq i8 %32, %35
  br i1 %36, label %41, label %37

37:                                               ; preds = %29
  %38 = trunc i64 %30 to i32
  %39 = icmp eq i32 %38, %22
  %40 = add nuw i64 %28, 1
  br i1 %39, label %44, label %27

41:                                               ; preds = %29
  %42 = add nuw nsw i64 %30, 1
  %43 = icmp eq i64 %42, %26
  br i1 %43, label %44, label %29, !llvm.loop !10

44:                                               ; preds = %37, %41
  %45 = trunc i64 %28 to i32
  br label %46

46:                                               ; preds = %9, %21, %44
  %47 = phi i32 [ %45, %44 ], [ 0, %21 ], [ 0, %9 ]
  %48 = call i32 (i8*, ...) @printf(i8* nonnull dereferenceable(1) getelementptr inbounds ([3 x i8], [3 x i8]* @.str, i64 0, i64 0), i32 %47)
  call void @llvm.lifetime.end.p0i8(i64 60, i8* nonnull %4) #4
  call void @llvm.lifetime.end.p0i8(i64 60, i8* nonnull %3) #4
  ret i32 0
}

; Function Attrs: argmemonly mustprogress nofree nosync nounwind willreturn
declare void @llvm.lifetime.start.p0i8(i64 immarg, i8* nocapture) #1

declare i32 @gets(...) local_unnamed_addr #2

; Function Attrs: nofree nounwind
declare noundef i32 @printf(i8* nocapture noundef readonly, ...) local_unnamed_addr #3

; Function Attrs: argmemonly mustprogress nofree nosync nounwind willreturn
declare void @llvm.lifetime.end.p0i8(i64 immarg, i8* nocapture) #1

; Function Attrs: nofree nounwind
declare noundef i32 @getc(%struct._IO_FILE* nocapture noundef) local_unnamed_addr #3


!llvm.module.flags = !{!0, !1, !2, !3}
!llvm.ident = !{!4}

!0 = !{i32 1, !"wchar_size", i32 4}
!1 = !{i32 7, !"PIC Level", i32 2}
!2 = !{i32 7, !"PIE Level", i32 2}
!3 = !{i32 7, !"uwtable", i32 1}
!4 = !{!"clang version 13.0.0"}
!5 = !{!6, !6, i64 0}
!6 = !{!"any pointer", !7, i64 0}
!7 = !{!"omnipotent char", !8, i64 0}
!8 = !{!"Simple C/C++ TBAA"}
!9 = !{!7, !7, i64 0}
!10 = distinct !{!10, !11}
!11 = !{!"llvm.loop.mustprogress"}
